; Function Attrs: mustprogress uwtable
define void @_Z10done_blockP7t_block(ptr noundef captures(none) initializes((0, 4), (16, 20)) %0) local_unnamed_addr #0 {
  store i32 0, ptr %0, align 8, !tbaa !4
  %2 = getelementptr inbounds nuw i8, ptr %0, i64 8
  %3 = load ptr, ptr %2, align 8, !tbaa !20
  tail call void @_Z9save_freePKcS0_iPv(ptr noundef nonnull @.str, ptr noundef nonnull @.str.1, i32 noundef 73, ptr noundef %3)
  store ptr null, ptr %2, align 8, !tbaa !20
  %4 = getelementptr inbounds nuw i8, ptr %0, i64 16
  store i32 0, ptr %4, align 8, !tbaa !11
  ret void
}